; Function Attrs: nounwind uwtable
define ptr @l_Lean_Meta_Grind_checkSplitStatus(ptr noundef %0, ptr noundef %1, ptr noundef %2, ptr noundef %3, ptr noundef %4, ptr noundef %5, ptr noundef %6, ptr noundef %7, ptr noundef %8, ptr noundef %9) local_unnamed_addr #0 {
  %11 = ptrtoint ptr %0 to i64
  %12 = and i64 %11, 1
  %.not.i60 = icmp eq i64 %12, 0
  br i1 %.not.i60, label %16, label %13

13:                                               ; preds = %10
  %14 = lshr i64 %11, 1
  %15 = trunc i64 %14 to i32
  br label %lean_obj_tag.exit

16:                                               ; preds = %10
  %17 = getelementptr i8, ptr %0, i64 4
  %.val.i = load i32, ptr %17, align 4
  %18 = lshr i32 %.val.i, 24
  br label %lean_obj_tag.exit

lean_obj_tag.exit:                                ; preds = %13, %16
  %.0.i = phi i32 [ %15, %13 ], [ %18, %16 ]
  %19 = getelementptr inbounds nuw i8, ptr %0, i64 8
  %20 = load ptr, ptr %19, align 8, !tbaa !4
  %21 = ptrtoint ptr %20 to i64
  %22 = and i64 %21, 1
  %.not78 = icmp eq i64 %22, 0
  switch i32 %.0.i, label %53 [
    i32 0, label %23
    i32 1, label %38
  ]

23:                                               ; preds = %lean_obj_tag.exit
  br i1 %.not78, label %24, label %lean_inc.exit55

24:                                               ; preds = %23
  %.val.i61 = load i32, ptr %20, align 4, !tbaa !10
  %25 = icmp sgt i32 %.val.i61, 0
  br i1 %25, label %26, label %28, !prof !13

26:                                               ; preds = %24
  %27 = add nuw i32 %.val.i61, 1
  store i32 %27, ptr %20, align 4, !tbaa !10
  br label %lean_inc.exit55

28:                                               ; preds = %24
  %.not.i62 = icmp eq i32 %.val.i61, 0
  br i1 %.not.i62, label %lean_inc.exit55, label %29

29:                                               ; preds = %28
  tail call void @lean_inc_ref_cold(ptr noundef nonnull %20) #4
  br label %lean_inc.exit55

lean_inc.exit55:                                  ; preds = %29, %28, %26, %23
  br i1 %.not.i60, label %30, label %lean_dec.exit51

30:                                               ; preds = %lean_inc.exit55
  %31 = load i32, ptr %0, align 4, !tbaa !10
  %32 = icmp sgt i32 %31, 1
  br i1 %32, label %33, label %35, !prof !13

33:                                               ; preds = %30
  %34 = add nsw i32 %31, -1
  store i32 %34, ptr %0, align 4, !tbaa !10
  br label %lean_dec.exit51

35:                                               ; preds = %30
  %.not.i = icmp eq i32 %31, 0
  br i1 %.not.i, label %lean_dec.exit51, label %36

36:                                               ; preds = %35
  tail call void @lean_dec_ref_cold(ptr noundef nonnull %0) #4
  br label %lean_dec.exit51

lean_dec.exit51:                                  ; preds = %36, %35, %33, %lean_inc.exit55
  %37 = tail call ptr @l___private_Lean_Meta_Tactic_Grind_Split_0__Lean_Meta_Grind_checkDefaultSplitStatus(ptr noundef %20, ptr noundef %1, ptr noundef %2, ptr noundef %3, ptr noundef %4, ptr noundef %5, ptr noundef %6, ptr noundef %7, ptr noundef %8, ptr noundef %9)
  br label %88

38:                                               ; preds = %lean_obj_tag.exit
  br i1 %.not78, label %39, label %lean_inc.exit54

39:                                               ; preds = %38
  %.val.i63 = load i32, ptr %20, align 4, !tbaa !10
  %40 = icmp sgt i32 %.val.i63, 0
  br i1 %40, label %41, label %43, !prof !13

41:                                               ; preds = %39
  %42 = add nuw i32 %.val.i63, 1
  store i32 %42, ptr %20, align 4, !tbaa !10
  br label %lean_inc.exit54

43:                                               ; preds = %39
  %.not.i64 = icmp eq i32 %.val.i63, 0
  br i1 %.not.i64, label %lean_inc.exit54, label %44

44:                                               ; preds = %43
  tail call void @lean_inc_ref_cold(ptr noundef nonnull %20) #4
  br label %lean_inc.exit54

lean_inc.exit54:                                  ; preds = %44, %43, %41, %38
  br i1 %.not.i60, label %45, label %lean_dec.exit50

45:                                               ; preds = %lean_inc.exit54
  %46 = load i32, ptr %0, align 4, !tbaa !10
  %47 = icmp sgt i32 %46, 1
  br i1 %47, label %48, label %50, !prof !13

48:                                               ; preds = %45
  %49 = add nsw i32 %46, -1
  store i32 %49, ptr %0, align 4, !tbaa !10
  br label %lean_dec.exit50

50:                                               ; preds = %45
  %.not.i56 = icmp eq i32 %46, 0
  br i1 %.not.i56, label %lean_dec.exit50, label %51

51:                                               ; preds = %50
  tail call void @lean_dec_ref_cold(ptr noundef nonnull %0) #4
  br label %lean_dec.exit50

lean_dec.exit50:                                  ; preds = %51, %50, %48, %lean_inc.exit54
  %52 = tail call ptr @l___private_Lean_Meta_Tactic_Grind_Split_0__Lean_Meta_Grind_checkForallStatus(ptr noundef %20, ptr nonnull poison, ptr noundef %1, ptr noundef %2, ptr noundef %3, ptr noundef %4, ptr noundef %5, ptr noundef %6, ptr noundef %7, ptr noundef %8, ptr noundef %9)
  br label %88

53:                                               ; preds = %lean_obj_tag.exit
  br i1 %.not78, label %54, label %lean_inc.exit53

54:                                               ; preds = %53
  %.val.i66 = load i32, ptr %20, align 4, !tbaa !10
  %55 = icmp sgt i32 %.val.i66, 0
  br i1 %55, label %56, label %58, !prof !13

56:                                               ; preds = %54
  %57 = add nuw i32 %.val.i66, 1
  store i32 %57, ptr %20, align 4, !tbaa !10
  br label %lean_inc.exit53

58:                                               ; preds = %54
  %.not.i67 = icmp eq i32 %.val.i66, 0
  br i1 %.not.i67, label %lean_inc.exit53, label %59

59:                                               ; preds = %58
  tail call void @lean_inc_ref_cold(ptr noundef nonnull %20) #4
  br label %lean_inc.exit53

lean_inc.exit53:                                  ; preds = %59, %58, %56, %53
  %60 = getelementptr inbounds nuw i8, ptr %0, i64 16
  %61 = load ptr, ptr %60, align 8, !tbaa !4
  %62 = ptrtoint ptr %61 to i64
  %63 = and i64 %62, 1
  %.not79 = icmp eq i64 %63, 0
  br i1 %.not79, label %64, label %lean_inc.exit52

64:                                               ; preds = %lean_inc.exit53
  %.val.i69 = load i32, ptr %61, align 4, !tbaa !10
  %65 = icmp sgt i32 %.val.i69, 0
  br i1 %65, label %66, label %68, !prof !13

66:                                               ; preds = %64
  %67 = add nuw i32 %.val.i69, 1
  store i32 %67, ptr %61, align 4, !tbaa !10
  br label %lean_inc.exit52

68:                                               ; preds = %64
  %.not.i70 = icmp eq i32 %.val.i69, 0
  br i1 %.not.i70, label %lean_inc.exit52, label %69

69:                                               ; preds = %68
  tail call void @lean_inc_ref_cold(ptr noundef nonnull %61) #4
  br label %lean_inc.exit52

lean_inc.exit52:                                  ; preds = %69, %68, %66, %lean_inc.exit53
  %70 = getelementptr inbounds nuw i8, ptr %0, i64 32
  %71 = load ptr, ptr %70, align 8, !tbaa !4
  %72 = ptrtoint ptr %71 to i64
  %73 = and i64 %72, 1
  %.not80 = icmp eq i64 %73, 0
  br i1 %.not80, label %74, label %lean_inc.exit

74:                                               ; preds = %lean_inc.exit52
  %.val.i72 = load i32, ptr %71, align 4, !tbaa !10
  %75 = icmp sgt i32 %.val.i72, 0
  br i1 %75, label %76, label %78, !prof !13

76:                                               ; preds = %74
  %77 = add nuw i32 %.val.i72, 1
  store i32 %77, ptr %71, align 4, !tbaa !10
  br label %lean_inc.exit

78:                                               ; preds = %74
  %.not.i73 = icmp eq i32 %.val.i72, 0
  br i1 %.not.i73, label %lean_inc.exit, label %79

79:                                               ; preds = %78
  tail call void @lean_inc_ref_cold(ptr noundef nonnull %71) #4
  br label %lean_inc.exit

lean_inc.exit:                                    ; preds = %79, %78, %76, %lean_inc.exit52
  br i1 %.not.i60, label %80, label %lean_dec.exit

80:                                               ; preds = %lean_inc.exit
  %81 = load i32, ptr %0, align 4, !tbaa !10
  %82 = icmp sgt i32 %81, 1
  br i1 %82, label %83, label %85, !prof !13

83:                                               ; preds = %80
  %84 = add nsw i32 %81, -1
  store i32 %84, ptr %0, align 4, !tbaa !10
  br label %lean_dec.exit

85:                                               ; preds = %80
  %.not.i58 = icmp eq i32 %81, 0
  br i1 %.not.i58, label %lean_dec.exit, label %86

86:                                               ; preds = %85
  tail call void @lean_dec_ref_cold(ptr noundef nonnull %0) #4
  br label %lean_dec.exit

lean_dec.exit:                                    ; preds = %86, %85, %83, %lean_inc.exit
  %87 = tail call ptr @l_Lean_Meta_Grind_checkSplitInfoArgStatus(ptr noundef %20, ptr noundef %61, ptr noundef %71, ptr noundef %1, ptr noundef %2, ptr noundef %3, ptr noundef %4, ptr noundef %5, ptr noundef %6, ptr noundef %7, ptr noundef %8, ptr noundef %9)
  br label %88

88:                                               ; preds = %lean_dec.exit, %lean_dec.exit50, %lean_dec.exit51
  %.0 = phi ptr [ %87, %lean_dec.exit ], [ %52, %lean_dec.exit50 ], [ %37, %lean_dec.exit51 ]
  ret ptr %.0
}